; ModuleID = 'source-C-CXX/32/1574.c'
source_filename = "source-C-CXX/32/1574.c"
target datalayout = "e-m:e-p270:32:32-p271:32:32-p272:64:64-i64:64-f80:128-n8:16:32:64-S128"
target triple = "x86_64-pc-linux-gnu"

@.str = private unnamed_addr constant [3 x i8] c"%d\00", align 1
@.str.1 = private unnamed_addr constant [3 x i8] c"%s\00", align 1

; Function Attrs: nofree nounwind sspstrong uwtable
define dso_local i32 @main() local_unnamed_addr #0 {
  %1 = alloca i32, align 4
  %2 = alloca [1000 x [260 x i8]], align 16
  %3 = bitcast i32* %1 to i8*
  call void @llvm.lifetime.start.p0i8(i64 4, i8* nonnull %3) #4
  %4 = getelementptr inbounds [1000 x [260 x i8]], [1000 x [260 x i8]]* %2, i64 0, i64 0, i64 0
  call void @llvm.lifetime.start.p0i8(i64 260000, i8* nonnull %4) #4
  %5 = call i32 (i8*, ...) @__isoc99_scanf(i8* getelementptr inbounds ([3 x i8], [3 x i8]* @.str, i64 0, i64 0), i32* nonnull %1)
  %6 = load i32, i32* %1, align 4, !tbaa !5
  %7 = icmp sgt i32 %6, 0
  br i1 %7, label %9, label %8

8:                                                ; preds = %24, %0
  call void @llvm.lifetime.end.p0i8(i64 260000, i8* nonnull %4) #4
  call void @llvm.lifetime.end.p0i8(i64 4, i8* nonnull %3) #4
  ret i32 0

9:                                                ; preds = %0, %24
  %10 = phi i64 [ %26, %24 ], [ 0, %0 ]
  %11 = getelementptr inbounds [1000 x [260 x i8]], [1000 x [260 x i8]]* %2, i64 0, i64 %10, i64 0
  %12 = call i32 (i8*, ...) @__isoc99_scanf(i8* getelementptr inbounds ([3 x i8], [3 x i8]* @.str.1, i64 0, i64 0), i8* nonnull %11)
  br label %13

13:                                               ; preds = %22, %9
  %14 = phi i64 [ %23, %22 ], [ 0, %9 ]
  %15 = getelementptr inbounds [1000 x [260 x i8]], [1000 x [260 x i8]]* %2, i64 0, i64 %10, i64 %14
  %16 = load i8, i8* %15, align 1, !tbaa !9
  switch i8 %16, label %22 [
    i8 0, label %24
    i8 65, label %20
    i8 84, label %17
    i8 71, label %18
    i8 67, label %19
  ]

17:                                               ; preds = %13
  br label %20

18:                                               ; preds = %13
  br label %20

19:                                               ; preds = %13
  br label %20

20:                                               ; preds = %13, %18, %19, %17
  %21 = phi i8 [ 65, %17 ], [ 71, %19 ], [ 67, %18 ], [ 84, %13 ]
  store i8 %21, i8* %15, align 1, !tbaa !9
  br label %22

22:                                               ; preds = %20, %13
  %23 = add nuw i64 %14, 1
  br label %13, !llvm.loop !10

24:                                               ; preds = %13
  %25 = call i32 @puts(i8* nonnull %11)
  %26 = add nuw nsw i64 %10, 1
  %27 = load i32, i32* %1, align 4, !tbaa !5
  %28 = sext i32 %27 to i64
  %29 = icmp slt i64 %26, %28
  br i1 %29, label %9, label %8, !llvm.loop !12
}

; Function Attrs: argmemonly mustprogress nofree nosync nounwind willreturn
declare void @llvm.lifetime.start.p0i8(i64 immarg, i8* nocapture) #1

; Function Attrs: nofree nounwind
declare noundef i32 @__isoc99_scanf(i8* nocapture noundef readonly, ...) local_unnamed_addr #2

; Function Attrs: argmemonly mustprogress nofree nosync nounwind willreturn
declare void @llvm.lifetime.end.p0i8(i64 immarg, i8* nocapture) #1

; Function Attrs: nofree nounwind
declare noundef i32 @puts(i8* nocapture noundef readonly) local_unnamed_addr #3


!llvm.module.flags = !{!0, !1, !2, !3}
!llvm.ident = !{!4}

!0 = !{i32 1, !"wchar_size", i32 4}
!1 = !{i32 7, !"PIC Level", i32 2}
!2 = !{i32 7, !"PIE Level", i32 2}
!3 = !{i32 7, !"uwtable", i32 1}
!4 = !{!"clang version 13.0.0"}
!5 = !{!6, !6, i64 0}
!6 = !{!"int", !7, i64 0}
!7 = !{!"omnipotent char", !8, i64 0}
!8 = !{!"Simple C/C++ TBAA"}
!9 = !{!7, !7, i64 0}
!10 = distinct !{!10, !11}
!11 = !{!"llvm.loop.mustprogress"}
!12 = distinct !{!12, !11}
